target datalayout = "e-m:e-p270:32:32-p271:32:32-p272:64:64-i64:64-i128:128-f80:128-n8:16:32:64-S128"
target triple = "x86_64-pc-linux-gnu"

%struct.EventFilterPrivate_HandlerNode_ = type { %struct.EventHandlerRestricted_HandlerNode_, %struct.EventFilters_ }
%struct.EventHandlerRestricted_HandlerNode_ = type { %struct.HandlerNode_, %struct.EventHandlerPrivate_Data_ }
%struct.HandlerNode_ = type { i32, i32, i8, i8, i32 }
%struct.EventHandlerPrivate_Data_ = type { ptr, ptr, ptr, ptr }
%struct.EventFilters_ = type { i32, [10000 x %struct.Filter_] }
%struct.Filter_ = type { i8, %union.anon }
%union.anon = type { %struct.LocationFilter }
%struct.LocationFilter = type { ptr, ptr, i64 }
%struct.StepFilter = type { i32, i32, ptr }

; Function Attrs: nounwind uwtable
define hidden i32 @eventFilter_setStepFilter(ptr noundef %0, i32 noundef %1, ptr noundef %2, i32 noundef %3, i32 noundef %4) #0 {
  %6 = alloca i32, align 4
  %7 = alloca ptr, align 8
  %8 = alloca i32, align 4
  %9 = alloca ptr, align 8
  %10 = alloca i32, align 4
  %11 = alloca i32, align 4
  %12 = alloca i32, align 4
  %13 = alloca ptr, align 8
  %14 = alloca ptr, align 8
  store ptr %0, ptr %7, align 8
  store i32 %1, ptr %8, align 4
  store ptr %2, ptr %9, align 8
  store i32 %3, ptr %10, align 4
  store i32 %4, ptr %11, align 4
  %15 = call ptr @getEnv()
  store ptr %15, ptr %13, align 8
  %16 = load ptr, ptr %7, align 8
  %17 = getelementptr inbounds %struct.EventFilterPrivate_HandlerNode_, ptr %16, i32 0, i32 1
  %18 = getelementptr inbounds %struct.EventFilters_, ptr %17, i32 0, i32 1
  %19 = load i32, ptr %8, align 4
  %20 = sext i32 %19 to i64
  %21 = getelementptr inbounds [10000 x %struct.Filter_], ptr %18, i64 0, i64 %20
  %22 = getelementptr inbounds %struct.Filter_, ptr %21, i32 0, i32 1
  store ptr %22, ptr %14, align 8
  %23 = load i32, ptr %8, align 4
  %24 = load ptr, ptr %7, align 8
  %25 = getelementptr inbounds %struct.EventFilterPrivate_HandlerNode_, ptr %24, i32 0, i32 1
  %26 = getelementptr inbounds %struct.EventFilters_, ptr %25, i32 0, i32 0
  %27 = load i32, ptr %26, align 8
  %28 = icmp sge i32 %23, %27
  br i1 %28, label %29, label %30

29:                                               ; preds = %5
  store i32 202, ptr %6, align 4
  br label %70

30:                                               ; preds = %5
  %31 = load ptr, ptr %7, align 8
  %32 = getelementptr inbounds %struct.HandlerNode_, ptr %31, i32 0, i32 1
  %33 = load i32, ptr %32, align 4
  %34 = icmp ne i32 %33, 1
  br i1 %34, label %35, label %36

35:                                               ; preds = %30
  store i32 202, ptr %6, align 4
  br label %70

36:                                               ; preds = %30
  %37 = load ptr, ptr %13, align 8
  %38 = load ptr, ptr %9, align 8
  %39 = load ptr, ptr %14, align 8
  %40 = getelementptr inbounds %struct.StepFilter, ptr %39, i32 0, i32 2
  call void @saveGlobalRef(ptr noundef %37, ptr noundef %38, ptr noundef %40)
  %41 = load ptr, ptr %13, align 8
  %42 = load ptr, ptr %14, align 8
  %43 = getelementptr inbounds %struct.StepFilter, ptr %42, i32 0, i32 2
  %44 = load ptr, ptr %43, align 8
  %45 = load i32, ptr %10, align 4
  %46 = load i32, ptr %11, align 4
  %47 = load ptr, ptr %7, align 8
  %48 = call i32 @stepControl_beginStep(ptr noundef %41, ptr noundef %44, i32 noundef %45, i32 noundef %46, ptr noundef %47)
  store i32 %48, ptr %12, align 4
  %49 = load i32, ptr %12, align 4
  %50 = icmp ne i32 %49, 0
  br i1 %50, label %51, label %56

51:                                               ; preds = %36
  %52 = load ptr, ptr %13, align 8
  %53 = load ptr, ptr %14, align 8
  %54 = getelementptr inbounds %struct.StepFilter, ptr %53, i32 0, i32 2
  call void @tossGlobalRef(ptr noundef %52, ptr noundef %54)
  %55 = load i32, ptr %12, align 4
  store i32 %55, ptr %6, align 4
  br label %70

56:                                               ; preds = %36
  %57 = load ptr, ptr %7, align 8
  %58 = getelementptr inbounds %struct.EventFilterPrivate_HandlerNode_, ptr %57, i32 0, i32 1
  %59 = getelementptr inbounds %struct.EventFilters_, ptr %58, i32 0, i32 1
  %60 = load i32, ptr %8, align 4
  %61 = sext i32 %60 to i64
  %62 = getelementptr inbounds [10000 x %struct.Filter_], ptr %59, i64 0, i64 %61
  %63 = getelementptr inbounds %struct.Filter_, ptr %62, i32 0, i32 0
  store i8 10, ptr %63, align 8
  %64 = load i32, ptr %11, align 4
  %65 = load ptr, ptr %14, align 8
  %66 = getelementptr inbounds %struct.StepFilter, ptr %65, i32 0, i32 1
  store i32 %64, ptr %66, align 4
  %67 = load i32, ptr %10, align 4
  %68 = load ptr, ptr %14, align 8
  %69 = getelementptr inbounds %struct.StepFilter, ptr %68, i32 0, i32 0
  store i32 %67, ptr %69, align 8
  store i32 0, ptr %6, align 4
  br label %70

70:                                               ; preds = %56, %51, %35, %29
  %71 = load i32, ptr %6, align 4
  ret i32 %71
}