; Function Attrs: nounwind uwtable
define hidden i32 @eventFilter_setStepFilter(ptr noundef %0, i32 noundef %1, ptr noundef %2, i32 noundef %3, i32 noundef %4) local_unnamed_addr #0 {
  %6 = tail call ptr @getEnv() #6
  %7 = getelementptr inbounds i8, ptr %0, i64 48
  %8 = getelementptr inbounds i8, ptr %0, i64 56
  %9 = sext i32 %1 to i64
  %10 = getelementptr inbounds [10000 x %struct.Filter_], ptr %8, i64 0, i64 %9
  %11 = getelementptr inbounds i8, ptr %10, i64 8
  %12 = load i32, ptr %7, align 8
  %.not = icmp sgt i32 %12, %1
  br i1 %.not, label %13, label %23

13:                                               ; preds = %5
  %14 = getelementptr inbounds i8, ptr %0, i64 4
  %15 = load i32, ptr %14, align 4
  %.not24 = icmp eq i32 %15, 1
  br i1 %.not24, label %16, label %23

16:                                               ; preds = %13
  %17 = getelementptr inbounds i8, ptr %10, i64 16
  tail call void @saveGlobalRef(ptr noundef %6, ptr noundef %2, ptr noundef nonnull %17) #6
  %18 = load ptr, ptr %17, align 8
  %19 = tail call i32 @stepControl_beginStep(ptr noundef %6, ptr noundef %18, i32 noundef %3, i32 noundef %4, ptr noundef nonnull %0) #6
  %.not25 = icmp eq i32 %19, 0
  br i1 %.not25, label %21, label %20

20:                                               ; preds = %16
  tail call void @tossGlobalRef(ptr noundef %6, ptr noundef nonnull %17) #6
  br label %23

21:                                               ; preds = %16
  store i8 10, ptr %10, align 8
  %22 = getelementptr inbounds i8, ptr %10, i64 12
  store i32 %4, ptr %22, align 4
  store i32 %3, ptr %11, align 8
  br label %23

23:                                               ; preds = %13, %5, %21, %20
  %.0 = phi i32 [ %19, %20 ], [ 0, %21 ], [ 202, %5 ], [ 202, %13 ]
  ret i32 %.0
}